target datalayout = "e-m:e-p270:32:32-p271:32:32-p272:64:64-i64:64-i128:128-f80:128-n8:16:32:64-S128"
target triple = "x86_64-pc-linux-gnu"

; Function Attrs: nounwind uwtable
define internal void @redisProtocolToLuaType_Attribute(ptr noundef %0, ptr noundef %1, i64 noundef %2, ptr noundef %3) #0 {
  %5 = alloca ptr, align 8
  %6 = alloca ptr, align 8
  %7 = alloca i64, align 8
  %8 = alloca ptr, align 8
  %9 = alloca i64, align 8
  store ptr %0, ptr %5, align 8, !tbaa !123
  store ptr %1, ptr %6, align 8, !tbaa !12
  store i64 %2, ptr %7, align 8, !tbaa !23
  store ptr %3, ptr %8, align 8, !tbaa !10
  call void @llvm.lifetime.start.p0(i64 8, ptr %9) #12
  store i64 0, ptr %9, align 8, !tbaa !23
  br label %10

10:                                               ; preds = %20, %4
  %11 = load i64, ptr %9, align 8, !tbaa !23
  %12 = load i64, ptr %7, align 8, !tbaa !23
  %13 = icmp ult i64 %11, %12
  br i1 %13, label %15, label %14

14:                                               ; preds = %10
  call void @llvm.lifetime.end.p0(i64 8, ptr %9) #12
  br label %23

15:                                               ; preds = %10
  %16 = load ptr, ptr %5, align 8, !tbaa !123
  %17 = call i32 @parseReply(ptr noundef %16, ptr noundef null)
  %18 = load ptr, ptr %5, align 8, !tbaa !123
  %19 = call i32 @parseReply(ptr noundef %18, ptr noundef null)
  br label %20

20:                                               ; preds = %15
  %21 = load i64, ptr %9, align 8, !tbaa !23
  %22 = add i64 %21, 1
  store i64 %22, ptr %9, align 8, !tbaa !23
  br label %10, !llvm.loop !128

23:                                               ; preds = %14
  %24 = load ptr, ptr %5, align 8, !tbaa !123
  %25 = load ptr, ptr %6, align 8, !tbaa !12
  %26 = call i32 @parseReply(ptr noundef %24, ptr noundef %25)
  ret void
}