; Function Attrs: nounwind uwtable
define internal void @redisProtocolToLuaType_Attribute(ptr noundef %0, ptr noundef %1, i64 noundef %2, ptr readnone captures(none) %3) #0 {
  %.not = icmp eq i64 %2, 0
  br i1 %.not, label %._crit_edge, label %.lr.ph

._crit_edge:                                      ; preds = %.lr.ph, %4
  %5 = tail call i32 @parseReply(ptr noundef %0, ptr noundef %1) #11
  ret void

.lr.ph:                                           ; preds = %4, %.lr.ph
  %.06 = phi i64 [ %8, %.lr.ph ], [ 0, %4 ]
  %6 = tail call i32 @parseReply(ptr noundef %0, ptr noundef null) #11
  %7 = tail call i32 @parseReply(ptr noundef %0, ptr noundef null) #11
  %8 = add nuw i64 %.06, 1
  %exitcond.not = icmp eq i64 %8, %2
  br i1 %exitcond.not, label %._crit_edge, label %.lr.ph, !llvm.loop !109
}